-----BEGIN PRIVATE KEY-----
MIIEvAIBADANBgkqhkiG9w0BAQEFAASCBKYwggSiAgEAAoIBAQDEYgen/7FzMzeI
DkN7rah3FVP0QR3bAEE+gtFetIgbEFGnCpJtq769KJ4gyiIVsTCetnxPttHbUsJ0
UaerfgFWcSoBz5mZX3vjdZxperWyhJiAjXQUrYMSRtRi/QczdRpVzLTQX4/kURNc
pF3EvxJIB5wttNHiWC62Q9hBhoB2RinOPidGO1YyLIyfoygorJTVsC0pDy153td5
mgAX5sLhD7u0oAAnkEt3lL3wMONpM6Tqa/aBGnKWN9zzT98lgcOkd/ItHwxhOHiq
tPrCEYBMhE/5m3Rr0lUW8PlhAhbSYnfPeGZg7N8Jq+Fl957jbiucXqTKXkK1E9QN
Vz8zaxd9AgMBAAECggEAIaoWWue7oR5mBhY/3js6NlO7JRNmjUzBYnhlcMEs1crZ
3HM0/8ThuSZ12PQdnK9XwNVSgQ27csgAmpUG06CRlSJoC5BtabvTDn5yViiZbiVJ
yTu2avcFkYP/04pBikIoRg4F7vR6w65cTdTFWD1S4nMfhDxLgGwScd82eqEWc2+t
xZpfTiSiViMmQKhtKf6tWoEl8OeThsmqmL2QdcLK5RKfGCdaFPowh6Tf7C639HkF
4T5SprkIkFaOcbyUxjVPYftj6ervISUqoXmknIFqn2FQ6RjJDpY9uHPHAOBeom/s
hMhX4/fDs0ETSV7g4i1nuLpRR6rh02Fq0uQaws/SpwKBgQDlNtBQFq3o8Ci5z894
3aDJANtu2e4ERkQxxdUHpBTfVshK/P9GEyFMdoeMt/2aS6JCtyRABQci9TOEtLYY
vBFsi3cG+zPR93aehIH4JsxPg0wqSeb+TvFxTnNoibQXnQs57RZLgTE4mmvEoLux
4AiC1M0ZvIU4LkxmEi0aJR8nSwKBgQDbVQk3Kf5qleq0ELJ/5ejpsIUdmllPP1uW
Rw+DcgZ9LD+TMvajw452+ETzTluAXpdJ7Rd5qk5SnfMLAGFdnpZkcbT7zLbOQ7I/
iVm2O5B/n0Iwi9tJbjWvNZJZNu7ZiNec73RmIdWcrmvFcNDpmvglw1Ff/LJq2jJO
oXFQ+scXVwKBgFR8K7QZZ+if/KLgcfx+1DDCXB8zvINe0uv1m1vBot/fQNxC/GR7
0J46YiP//T3N+vTURExEjijYcDDN2wCq8VEs5qZwGN2fdN1gwfcRdeUo4/4CV14N
AvlcjTVO7E532Bd1x+30pIvUfzxuckBR71Ep1p9R2Vin2AkXUgB9BkqZAoGAKOqq
N3JMFhI1oLXktttrIf1eN/GNa61EJrrG+ByTfVJ94bYGMPLQZv1Vz5X0l/QNgSsL
0BSnW94/cvP1NgPZxo831imQiNY0MIotBEQEZuqM7IWKuR4oQbFaxe3rjQVsQ8ig
DFWPhhU74a90KcBRPqo7Sg7YMfrWm7iebR77eS0CgYAKbbFr0crt33xsvDoqHnzA
nZr1YAQHKnE784KhfL+BUM9Z2IH8Y9E+LZXwmJz3JDCMQeYsF6IB6u7YeWCp22xE
k2ccfqI6JPLv8uX4tTpF3a3dwTlVnDQNH/PQ1qNebnqXPzQS9rY008+5vugG/Szx
Fe7p3JgH7jtmeP+Qil1lUg==
-----END PRIVATE KEY-----
Certificate:
    Data:
        Version: 3 (0x2)
        Serial Number: 0 (0x0)
        Signature Algorithm: sha256WithRSAEncryption
        Issuer: C=TW, ST=Hsinchu, L=Hsinchu, O=zoo.ORG, OU=CA, CN=zoo Root CA
        Validity
            Not Before: Oct  4 15:37:58 2024 GMT
            Not After : Oct  4 15:37:58 2026 GMT
        Subject: C=TW, ST=Hsinchu, O=zoo.ORG, OU=WebServer, CN=local.zoolab.org
        Subject Public Key Info:
            Public Key Algorithm: rsaEncryption
                Public-Key: (2048 bit)
                Modulus:
                    00:c4:62:07:a7:ff:b1:73:33:37:88:0e:43:7b:ad:
                    a8:77:15:53:f4:41:1d:db:00:41:3e:82:d1:5e:b4:
                    88:1b:10:51:a7:0a:92:6d:ab:be:bd:28:9e:20:ca:
                    22:15:b1:30:9e:b6:7c:4f:b6:d1:db:52:c2:74:51:
                    a7:ab:7e:01:56:71:2a:01:cf:99:99:5f:7b:e3:75:
                    9c:69:7a:b5:b2:84:98:80:8d:74:14:ad:83:12:46:
                    d4:62:fd:07:33:75:1a:55:cc:b4:d0:5f:8f:e4:51:
                    13:5c:a4:5d:c4:bf:12:48:07:9c:2d:b4:d1:e2:58:
                    2e:b6:43:d8:41:86:80:76:46:29:ce:3e:27:46:3b:
                    56:32:2c:8c:9f:a3:28:28:ac:94:d5:b0:2d:29:0f:
                    2d:79:de:d7:79:9a:00:17:e6:c2:e1:0f:bb:b4:a0:
                    00:27:90:4b:77:94:bd:f0:30:e3:69:33:a4:ea:6b:
                    f6:81:1a:72:96:37:dc:f3:4f:df:25:81:c3:a4:77:
                    f2:2d:1f:0c:61:38:78:aa:b4:fa:c2:11:80:4c:84:
                    4f:f9:9b:74:6b:d2:55:16:f0:f9:61:02:16:d2:62:
                    77:cf:78:66:60:ec:df:09:ab:e1:65:f7:9e:e3:6e:
                    2b:9c:5e:a4:ca:5e:42:b5:13:d4:0d:57:3f:33:6b:
                    17:7d
                Exponent: 65537 (0x10001)
        X509v3 extensions:
            X509v3 Subject Alternative Name: 
                DNS:local.zoolab.org
            X509v3 Subject Key Identifier: 
                D3:0B:D9:55:12:81:DA:47:9C:A5:33:B1:74:9E:13:88:FA:08:16:79
            X509v3 Authority Key Identifier: 
                42:49:B7:61:C5:60:8B:C1:6C:0C:CA:78:92:99:77:5B:6E:A0:2E:6E
    Signature Algorithm: sha256WithRSAEncryption
    Signature Value:
        9e:1c:74:68:40:c5:19:01:09:aa:6b:c5:33:a2:7b:36:d8:a7:
        79:41:7f:ba:b2:9a:38:9d:20:8b:6d:8a:96:de:23:c5:b6:59:
        66:a1:c1:51:9f:45:80:ac:c6:27:70:a2:ae:f3:2a:ca:11:6d:
        50:30:3f:c6:88:7f:a6:c1:68:c8:d3:ca:2b:1a:bf:7b:6e:5e:
        5c:e6:29:61:e4:2c:de:e0:8b:9d:52:a3:7a:3e:5d:44:07:0a:
        9f:d1:13:ed:fb:9f:20:c2:a4:ea:86:46:99:96:0c:36:bb:74:
        27:cd:6a:39:7c:81:7a:5e:5d:57:b0:a8:94:80:a1:2d:81:65:
        32:85:00:b0:71:8f:be:9a:7d:cc:f9:41:20:9f:6f:ca:b9:0e:
        03:0e:a2:7f:7b:b6:4c:c2:e5:83:9b:28:39:6e:60:70:4c:bd:
        aa:7c:cd:71:72:c5:06:95:26:03:fb:6c:55:89:20:7e:e5:38:
        01:05:62:b5:3b:e0:b4:2f:70:ca:1c:de:97:b0:f0:56:63:18:
        92:9c:80:cc:e8:ce:68:b4:81:af:93:36:33:16:a4:42:75:14:
        35:09:3a:e8:ef:e8:88:9f:c0:8c:dd:d6:02:47:55:00:16:3d:
        d2:dc:28:1e:3d:96:dc:9e:33:5f:f1:0c:37:b0:8a:ea:b7:dd:
        24:3f:92:ba:93:22:9f:0e:2c:19:5e:e6:3b:86:97:6b:db:b8:
        5d:e7:bd:07:54:02:01:d1:e3:4e:1b:5b:8e:53:07:53:fa:1c:
        c0:90:0f:1c:5d:3f:0e:d2:18:59:25:61:d6:7e:b5:e4:ea:30:
        93:29:9a:c3:89:b5:c0:e1:84:45:47:0a:80:c0:ae:20:e5:1e:
        df:96:a8:7f:cb:cf:70:27:58:32:4f:0b:0d:a4:56:55:28:5e:
        60:00:60:49:2c:1e:fe:44:b1:b0:78:b6:94:57:b6:3b:6b:89:
        9b:39:f4:80:52:de:42:55:3e:19:57:fc:f2:96:1c:0c:ff:00:
        96:fa:fe:a6:bc:c4:35:7c:74:d8:28:d9:25:92:f8:40:0b:21:
        bd:42:42:18:dc:d9:13:f9:77:3b:00:2a:6c:fa:a9:5f:e4:02:
        1e:35:4f:47:68:84:d5:88:0a:3e:1c:28:23:9b:7e:d0:70:9a:
        83:81:83:06:49:86:8c:e7:22:e4:69:b7:1b:7f:5c:6d:fe:58:
        af:93:1a:03:2e:8e:e9:74:d7:92:a5:3c:54:7a:b3:aa:20:4e:
        3e:70:43:76:63:6b:59:b2:b1:22:57:91:7b:c4:b8:e8:ff:f6:
        72:00:14:8c:4c:a2:d5:ac:86:93:2b:7e:15:d0:d9:31:9f:ef:
        20:24:3e:fc:a5:ef:e6:10
-----BEGIN CERTIFICATE-----
MIIEoDCCAoigAwIBAgIBADANBgkqhkiG9w0BAQsFADBmMQswCQYDVQQGEwJUVzEQ
MA4GA1UECAwHSHNpbmNodTEQMA4GA1UEBwwHSHNpbmNodTEQMA4GA1UECgwHem9v
Lk9SRzELMAkGA1UECwwCQ0ExFDASBgNVBAMMC3pvbyBSb290IENBMB4XDTI0MTAw
NDE1Mzc1OFoXDTI2MTAwNDE1Mzc1OFowYDELMAkGA1UEBhMCVFcxEDAOBgNVBAgM
B0hzaW5jaHUxEDAOBgNVBAoMB3pvby5PUkcxEjAQBgNVBAsMCVdlYlNlcnZlcjEZ
MBcGA1UEAwwQbG9jYWwuem9vbGFiLm9yZzCCASIwDQYJKoZIhvcNAQEBBQADggEP
ADCCAQoCggEBAMRiB6f/sXMzN4gOQ3utqHcVU/RBHdsAQT6C0V60iBsQUacKkm2r
vr0oniDKIhWxMJ62fE+20dtSwnRRp6t+AVZxKgHPmZlfe+N1nGl6tbKEmICNdBSt
gxJG1GL9BzN1GlXMtNBfj+RRE1ykXcS/EkgHnC200eJYLrZD2EGGgHZGKc4+J0Y7
VjIsjJ+jKCislNWwLSkPLXne13maABfmwuEPu7SgACeQS3eUvfAw42kzpOpr9oEa
cpY33PNP3yWBw6R38i0fDGE4eKq0+sIRgEyET/mbdGvSVRbw+WECFtJid894ZmDs
3wmr4WX3nuNuK5xepMpeQrUT1A1XPzNrF30CAwEAAaNfMF0wGwYDVR0RBBQwEoIQ
bG9jYWwuem9vbGFiLm9yZzAdBgNVHQ4EFgQU0wvZVRKB2kecpTOxdJ4TiPoIFnkw
HwYDVR0jBBgwFoAUQkm3YcVgi8FsDMp4kpl3W26gLm4wDQYJKoZIhvcNAQELBQAD
ggIBAJ4cdGhAxRkBCaprxTOiezbYp3lBf7qymjidIIttipbeI8W2WWahwVGfRYCs
xidwoq7zKsoRbVAwP8aIf6bBaMjTyisav3tuXlzmKWHkLN7gi51So3o+XUQHCp/R
E+37nyDCpOqGRpmWDDa7dCfNajl8gXpeXVewqJSAoS2BZTKFALBxj76afcz5QSCf
b8q5DgMOon97tkzC5YObKDluYHBMvap8zXFyxQaVJgP7bFWJIH7lOAEFYrU74LQv
cMoc3pew8FZjGJKcgMzozmi0ga+TNjMWpEJ1FDUJOujv6IifwIzd1gJHVQAWPdLc
KB49ltyeM1/xDDewiuq33SQ/krqTIp8OLBle5juGl2vbuF3nvQdUAgHR404bW45T
B1P6HMCQDxxdPw7SGFklYdZ+teTqMJMpmsOJtcDhhEVHCoDAriDlHt+WqH/Lz3An
WDJPCw2kVlUoXmAAYEksHv5EsbB4tpRXtjtriZs59IBS3kJVPhlX/PKWHAz/AJb6
/qa8xDV8dNgo2SWS+EALIb1CQhjc2RP5dzsAKmz6qV/kAh41T0dohNWICj4cKCOb
ftBwmoOBgwZJhoznIuRptxt/XG3+WK+TGgMujul015KlPFR6s6ogTj5wQ3Zja1my
sSJXkXvEuOj/9nIAFIxMotWshpMrfhXQ2TGf7yAkPvyl7+YQ
-----END CERTIFICATE-----
